target datalayout = "e-m:e-p270:32:32-p271:32:32-p272:64:64-i64:64-i128:128-f80:128-n8:16:32:64-S128"
target triple = "x86_64-pc-linux-gnu"

%struct._zend_executor_globals = type { %struct._zval_struct, %struct._zval_struct, [32 x ptr], ptr, ptr, %struct._zend_array, %struct._zend_array, ptr, i32, i8, %struct._zval_struct, i32, ptr, ptr, ptr, ptr, ptr, ptr, i64, ptr, ptr, i32, ptr, i32, i64, i32, i32, i32, i8, i8, %struct.zend_atomic_bool_s, %struct.zend_atomic_bool_s, ptr, i64, ptr, ptr, %struct._zend_array, %struct._zend_array, i32, i8, %struct._zval_struct, %struct._zval_struct, %struct._zend_stack, %struct._zend_stack, %struct._zend_stack, ptr, i32, i32, i64, ptr, ptr, ptr, %struct._zend_objects_store, %struct._zend_lazy_objects_store, ptr, ptr, ptr, [3 x %struct._zend_op], ptr, i8, i8, i64, i32, i32, ptr, [16 x %struct._HashTableIterator], ptr, %union._zend_function, %struct._zend_op, %struct._zend_array, i64, %struct.zend_get_gc_buffer, ptr, ptr, ptr, i64, i8, i32, ptr, ptr, i64, %struct._zend_call_stack, i64, i64, %struct._zend_strtod_state, [6 x ptr] }
%struct.zend_atomic_bool_s = type { i8 }
%struct._zval_struct = type { %union._zend_value, %union.anon, %union.anon.2 }
%union._zend_value = type { i64 }
%union.anon = type { i32 }
%union.anon.2 = type { i32 }
%struct._zend_stack = type { i32, i32, i32, ptr }
%struct._zend_objects_store = type { ptr, i32, i32, i32 }
%struct._zend_lazy_objects_store = type { %struct._zend_array }
%struct._HashTableIterator = type { ptr, i32, i32 }
%union._zend_function = type { %struct._zend_op_array }
%struct._zend_op_array = type { i8, [3 x i8], i32, ptr, ptr, ptr, i32, i32, ptr, ptr, ptr, ptr, i32, ptr, i32, i32, i32, ptr, ptr, ptr, ptr, ptr, i32, i32, ptr, ptr, ptr, i32, i32, i32, i32, ptr, ptr, [6 x ptr] }
%struct._zend_op = type { ptr, %union._znode_op, %union._znode_op, %union._znode_op, i32, i32, i8, i8, i8, i8 }
%union._znode_op = type { i32 }
%struct._zend_array = type { %struct._zend_refcounted_h, %union.anon.4, i32, %union.anon.6, i32, i32, i32, i32, i64, ptr }
%struct._zend_refcounted_h = type { i32, %union.anon.3 }
%union.anon.3 = type { i32 }
%union.anon.4 = type { i32 }
%union.anon.6 = type { ptr }
%struct.zend_get_gc_buffer = type { ptr, ptr, ptr }
%struct._zend_call_stack = type { ptr, i64 }
%struct._zend_strtod_state = type { [8 x ptr], ptr, ptr }
%struct._zend_execute_data = type { ptr, ptr, ptr, ptr, %struct._zval_struct, ptr, ptr, ptr, ptr }

@executor_globals = external global %struct._zend_executor_globals, align 8
@.str.10 = private unnamed_addr constant [14 x i8] c"versionString\00", align 1
@.str.11 = private unnamed_addr constant [14 x i8] c"versionNumber\00", align 1

; Function Attrs: alwaysinline nounwind uwtable
define internal void @add_assoc_long(ptr noundef %0, ptr noundef %1, i64 noundef %2) #8 {
  %4 = alloca ptr, align 8
  %5 = alloca ptr, align 8
  %6 = alloca i64, align 8
  store ptr %0, ptr %4, align 8, !tbaa !9
  store ptr %1, ptr %5, align 8, !tbaa !62
  store i64 %2, ptr %6, align 8, !tbaa !11
  %7 = load ptr, ptr %4, align 8, !tbaa !9
  %8 = load ptr, ptr %5, align 8, !tbaa !62
  %9 = load ptr, ptr %5, align 8, !tbaa !62
  %10 = call i64 @strlen(ptr noundef %9) #16
  %11 = load i64, ptr %6, align 8, !tbaa !11
  call void @add_assoc_long_ex(ptr noundef %7, ptr noundef %8, i64 noundef %10, i64 noundef %11)
  ret void
}

; Function Attrs: alwaysinline nounwind uwtable
define internal void @add_assoc_string(ptr noundef %0, ptr noundef %1, ptr noundef %2) #8 {
  %4 = alloca ptr, align 8
  %5 = alloca ptr, align 8
  %6 = alloca ptr, align 8
  store ptr %0, ptr %4, align 8, !tbaa !9
  store ptr %1, ptr %5, align 8, !tbaa !62
  store ptr %2, ptr %6, align 8, !tbaa !62
  %7 = load ptr, ptr %4, align 8, !tbaa !9
  %8 = load ptr, ptr %5, align 8, !tbaa !62
  %9 = load ptr, ptr %5, align 8, !tbaa !62
  %10 = call i64 @strlen(ptr noundef %9) #16
  %11 = load ptr, ptr %6, align 8, !tbaa !62
  call void @add_assoc_string_ex(ptr noundef %7, ptr noundef %8, i64 noundef %10, ptr noundef %11)
  ret void
}

; Function Attrs: nounwind uwtable
define hidden void @zim_SQLite3_version(ptr noundef %0, ptr noundef %1) #0 {
  %3 = alloca ptr, align 8
  %4 = alloca ptr, align 8
  %5 = alloca ptr, align 8
  %6 = alloca ptr, align 8
  store ptr %0, ptr %3, align 8, !tbaa !4
  store ptr %1, ptr %4, align 8, !tbaa !9
  %7 = load ptr, ptr %3, align 8, !tbaa !4
  %8 = getelementptr inbounds nuw %struct._zend_execute_data, ptr %7, i32 0, i32 4
  %9 = getelementptr inbounds nuw %struct._zval_struct, ptr %8, i32 0, i32 2
  %10 = load i32, ptr %9, align 4, !tbaa !13
  %11 = icmp eq i32 %10, 0
  %12 = xor i1 %11, true
  %13 = xor i1 %12, true
  %14 = zext i1 %13 to i32
  %15 = sext i32 %14 to i64
  %16 = call i64 @llvm.expect.i64(i64 %15, i64 1)
  %17 = icmp ne i64 %16, 0
  br i1 %17, label %18, label %19

18:                                               ; preds = %2
  br label %20

19:                                               ; preds = %2
  call void @zend_wrong_parameters_none_error()
  br label %20

20:                                               ; preds = %19, %18
  %21 = phi i32 [ 0, %18 ], [ -1, %19 ]
  %22 = icmp eq i32 %21, -1
  br i1 %22, label %23, label %28

23:                                               ; preds = %20
  br label %24

24:                                               ; preds = %23
  %25 = load ptr, ptr getelementptr inbounds nuw (%struct._zend_executor_globals, ptr @executor_globals, i32 0, i32 54), align 8, !tbaa !16
  %26 = icmp ne ptr %25, null
  call void @llvm.assume(i1 %26)
  br label %43

27:                                               ; No predecessors!
  br label %28

28:                                               ; preds = %27, %20
  br label %29

29:                                               ; preds = %28
  call void @llvm.lifetime.start.p0(i64 8, ptr %5) #15
  %30 = call ptr @_zend_new_array_0()
  store ptr %30, ptr %5, align 8, !tbaa !78
  call void @llvm.lifetime.start.p0(i64 8, ptr %6) #15
  %31 = load ptr, ptr %4, align 8, !tbaa !9
  store ptr %31, ptr %6, align 8, !tbaa !9
  %32 = load ptr, ptr %5, align 8, !tbaa !78
  %33 = load ptr, ptr %6, align 8, !tbaa !9
  %34 = getelementptr inbounds nuw %struct._zval_struct, ptr %33, i32 0, i32 0
  store ptr %32, ptr %34, align 8, !tbaa !13
  %35 = load ptr, ptr %6, align 8, !tbaa !9
  %36 = getelementptr inbounds nuw %struct._zval_struct, ptr %35, i32 0, i32 1
  store i32 775, ptr %36, align 8, !tbaa !13
  call void @llvm.lifetime.end.p0(i64 8, ptr %6) #15
  call void @llvm.lifetime.end.p0(i64 8, ptr %5) #15
  br label %37

37:                                               ; preds = %29
  %38 = load ptr, ptr %4, align 8, !tbaa !9
  %39 = call ptr @sqlite3_libversion()
  call void @add_assoc_string(ptr noundef %38, ptr noundef @.str.10, ptr noundef %39)
  %40 = load ptr, ptr %4, align 8, !tbaa !9
  %41 = call i32 @sqlite3_libversion_number()
  %42 = sext i32 %41 to i64
  call void @add_assoc_long(ptr noundef %40, ptr noundef @.str.11, i64 noundef %42)
  br label %43

43:                                               ; preds = %37, %24
  ret void
}