; Function Attrs: nounwind uwtable
define hidden void @zim_SQLite3_version(ptr noundef readonly captures(none) %0, ptr noundef %1) #0 {
  %3 = getelementptr inbounds nuw i8, ptr %0, i64 44
  %4 = load i32, ptr %3, align 4, !tbaa !8
  %.not = icmp eq i32 %4, 0
  br i1 %.not, label %.critedge, label %5, !prof !75

5:                                                ; preds = %2
  tail call void @zend_wrong_parameters_none_error() #17
  %6 = load ptr, ptr getelementptr inbounds nuw (i8, ptr @executor_globals, i64 960), align 8, !tbaa !9
  %7 = icmp ne ptr %6, null
  tail call void @llvm.assume(i1 %7)
  br label %13

.critedge:                                        ; preds = %2
  %8 = tail call ptr @_zend_new_array_0() #17
  store ptr %8, ptr %1, align 8, !tbaa !8
  %9 = getelementptr inbounds nuw i8, ptr %1, i64 8
  store i32 775, ptr %9, align 8, !tbaa !8
  %10 = tail call ptr @sqlite3_libversion() #17
  tail call void @add_assoc_string_ex(ptr noundef nonnull %1, ptr noundef nonnull @.str.10, i64 noundef 13, ptr noundef %10) #17
  %11 = tail call i32 @sqlite3_libversion_number() #17
  %12 = sext i32 %11 to i64
  tail call void @add_assoc_long_ex(ptr noundef nonnull %1, ptr noundef nonnull @.str.11, i64 noundef 13, i64 noundef range(i64 -2147483648, 2147483648) %12) #17
  br label %13

13:                                               ; preds = %.critedge, %5
  ret void
}